; Function Attrs: nounwind uwtable
define ptr @Extra_zddGetSymmetricVars(ptr noundef initializes((448, 452)) %0, ptr noundef %1, ptr noundef %2, ptr noundef %3) local_unnamed_addr #0 {
  %5 = getelementptr inbounds nuw i8, ptr %0, i64 448
  br label %6

6:                                                ; preds = %6, %4
  store i32 0, ptr %5, align 8, !tbaa !3
  %7 = tail call ptr @extraZddGetSymmetricVars(ptr noundef %0, ptr noundef %1, ptr noundef %2, ptr noundef %3)
  %8 = load i32, ptr %5, align 8, !tbaa !3
  %9 = icmp eq i32 %8, 1
  br i1 %9, label %6, label %10, !llvm.loop !49

10:                                               ; preds = %6
  ret ptr %7
}